target datalayout = "e-m:e-p270:32:32-p271:32:32-p272:64:64-i64:64-i128:128-f80:128-n8:16:32:64-S128"
target triple = "x86_64-unknown-linux-gnu"

%struct.BdrvChild = type { ptr, ptr, ptr, i32, ptr, i64, i64, i8, i8, %struct.anon, %struct.anon.0 }
%struct.anon = type { ptr, ptr }
%struct.anon.0 = type { ptr, ptr }
%struct.BdrvChildClass = type { i8, i8, ptr, ptr, ptr, ptr, ptr, ptr, ptr, ptr, ptr, ptr, ptr, ptr, ptr, ptr, ptr }
%struct.BlockLimits = type { i32, i64, i32, i64, i32, i32, i32, i64, i32, i64, i64, i32, i8, i32, i32, i32, i32, i32, i32, i32 }
%struct.BlockDriverState = type { i32, i8, i8, i8, i8, i8, ptr, ptr, ptr, %struct.anon.1, i8, [4096 x i8], [4096 x i8], [4096 x i8], [16 x i8], ptr, [4096 x i8], %struct.BlockLimits, i32, i32, i32, i32, [32 x i8], %union.anon, %union.anon.2, %union.anon.3, i32, [16 x %struct.anon.4], ptr, %struct.anon.5, ptr, ptr, %struct.anon.6, ptr, ptr, i32, ptr, i64, i64, %struct.QemuMutex, %struct.anon.7, %struct.Stat64, i32, i32, i32, i32, i32, i32, %struct.QemuMutex, %struct.anon.8, %struct.CoQueue, i8, i32, i8, %struct.CoMutex, ptr, ptr }
%struct.anon.1 = type { ptr }
%union.anon = type { %struct.QTailQLink }
%struct.QTailQLink = type { ptr, ptr }
%union.anon.2 = type { %struct.QTailQLink }
%union.anon.3 = type { %struct.QTailQLink }
%struct.anon.4 = type { ptr }
%struct.anon.5 = type { ptr }
%struct.anon.6 = type { ptr }
%struct.anon.7 = type { ptr }
%struct.Stat64 = type { i64 }
%struct.QemuMutex = type { %union.pthread_mutex_t, i8 }
%union.pthread_mutex_t = type { %struct.__pthread_mutex_s }
%struct.__pthread_mutex_s = type { i32, i32, i32, i32, i32, i16, i16, %struct.__pthread_internal_list }
%struct.__pthread_internal_list = type { ptr, ptr }
%struct.anon.8 = type { ptr }
%struct.CoQueue = type { %struct.anon.9 }
%struct.anon.9 = type { ptr, ptr }
%struct.CoMutex = type { i32, ptr, %struct.anon.10, %struct.anon.10, i32, i32, ptr }
%struct.anon.10 = type { ptr }

@.str = private unnamed_addr constant [22 x i8] c"qemu_in_main_thread()\00", align 1
@.str.1 = private unnamed_addr constant [19 x i8] c"../qemu/block/io.c\00", align 1
@__PRETTY_FUNCTION__.bdrv_drain_poll = private unnamed_addr constant [62 x i8] c"_Bool bdrv_drain_poll(BlockDriverState *, BdrvChild *, _Bool)\00", align 1
@__func__.bdrv_drain_poll = private unnamed_addr constant [16 x i8] c"bdrv_drain_poll\00", align 1

; Function Attrs: nounwind sspstrong uwtable
define dso_local zeroext i1 @bdrv_parent_drained_poll_single(ptr noundef %c) #0 {
entry:
  %retval = alloca i1, align 1
  %c.addr = alloca ptr, align 8
  store ptr %c, ptr %c.addr, align 8
  br label %do.body

do.body:                                          ; preds = %entry
  br label %do.end

do.end:                                           ; preds = %do.body
  %0 = load ptr, ptr %c.addr, align 8
  %klass = getelementptr inbounds %struct.BdrvChild, ptr %0, i32 0, i32 2
  %1 = load ptr, ptr %klass, align 8
  %drained_poll = getelementptr inbounds %struct.BdrvChildClass, ptr %1, i32 0, i32 11
  %2 = load ptr, ptr %drained_poll, align 8
  %tobool = icmp ne ptr %2, null
  br i1 %tobool, label %if.then, label %if.end

if.then:                                          ; preds = %do.end
  %3 = load ptr, ptr %c.addr, align 8
  %klass1 = getelementptr inbounds %struct.BdrvChild, ptr %3, i32 0, i32 2
  %4 = load ptr, ptr %klass1, align 8
  %drained_poll2 = getelementptr inbounds %struct.BdrvChildClass, ptr %4, i32 0, i32 11
  %5 = load ptr, ptr %drained_poll2, align 8
  %6 = load ptr, ptr %c.addr, align 8
  %call = call zeroext i1 %5(ptr noundef %6)
  store i1 %call, ptr %retval, align 1
  br label %return

if.end:                                           ; preds = %do.end
  store i1 false, ptr %retval, align 1
  br label %return

return:                                           ; preds = %if.end, %if.then
  %7 = load i1, ptr %retval, align 1
  ret i1 %7
}

; Function Attrs: nounwind sspstrong uwtable
define internal zeroext i1 @bdrv_parent_drained_poll(ptr noundef %bs, ptr noundef %ignore, i1 noundef zeroext %ignore_bds_parents) #0 {
entry:
  %bs.addr = alloca ptr, align 8
  %ignore.addr = alloca ptr, align 8
  %ignore_bds_parents.addr = alloca i8, align 1
  %c = alloca ptr, align 8
  %next = alloca ptr, align 8
  %busy = alloca i8, align 1
  store ptr %bs, ptr %bs.addr, align 8
  store ptr %ignore, ptr %ignore.addr, align 8
  %frombool = zext i1 %ignore_bds_parents to i8
  store i8 %frombool, ptr %ignore_bds_parents.addr, align 1
  store i8 0, ptr %busy, align 1
  br label %do.body

do.body:                                          ; preds = %entry
  br label %do.end

do.end:                                           ; preds = %do.body
  call void @assert_bdrv_graph_readable()
  %0 = load ptr, ptr %bs.addr, align 8
  %parents = getelementptr inbounds %struct.BlockDriverState, ptr %0, i32 0, i32 32
  %lh_first = getelementptr inbounds %struct.anon.6, ptr %parents, i32 0, i32 0
  %1 = load ptr, ptr %lh_first, align 8
  store ptr %1, ptr %c, align 8
  br label %for.cond

for.cond:                                         ; preds = %for.inc, %do.end
  %2 = load ptr, ptr %c, align 8
  %tobool = icmp ne ptr %2, null
  br i1 %tobool, label %land.rhs, label %land.end

land.rhs:                                         ; preds = %for.cond
  %3 = load ptr, ptr %c, align 8
  %next_parent = getelementptr inbounds %struct.BdrvChild, ptr %3, i32 0, i32 10
  %le_next = getelementptr inbounds %struct.anon.0, ptr %next_parent, i32 0, i32 0
  %4 = load ptr, ptr %le_next, align 8
  store ptr %4, ptr %next, align 8
  br label %land.end

land.end:                                         ; preds = %land.rhs, %for.cond
  %5 = phi i1 [ false, %for.cond ], [ true, %land.rhs ]
  br i1 %5, label %for.body, label %for.end

for.body:                                         ; preds = %land.end
  %6 = load ptr, ptr %c, align 8
  %7 = load ptr, ptr %ignore.addr, align 8
  %cmp = icmp eq ptr %6, %7
  br i1 %cmp, label %if.then, label %lor.lhs.false

lor.lhs.false:                                    ; preds = %for.body
  %8 = load i8, ptr %ignore_bds_parents.addr, align 1
  %tobool1 = trunc i8 %8 to i1
  br i1 %tobool1, label %land.lhs.true, label %if.end

land.lhs.true:                                    ; preds = %lor.lhs.false
  %9 = load ptr, ptr %c, align 8
  %klass = getelementptr inbounds %struct.BdrvChild, ptr %9, i32 0, i32 2
  %10 = load ptr, ptr %klass, align 8
  %parent_is_bds = getelementptr inbounds %struct.BdrvChildClass, ptr %10, i32 0, i32 1
  %11 = load i8, ptr %parent_is_bds, align 1
  %tobool2 = trunc i8 %11 to i1
  br i1 %tobool2, label %if.then, label %if.end

if.then:                                          ; preds = %land.lhs.true, %for.body
  br label %for.inc

if.end:                                           ; preds = %land.lhs.true, %lor.lhs.false
  %12 = load ptr, ptr %c, align 8
  %call = call zeroext i1 @bdrv_parent_drained_poll_single(ptr noundef %12)
  %conv = zext i1 %call to i32
  %13 = load i8, ptr %busy, align 1
  %tobool3 = trunc i8 %13 to i1
  %conv4 = zext i1 %tobool3 to i32
  %or = or i32 %conv4, %conv
  %tobool5 = icmp ne i32 %or, 0
  %frombool6 = zext i1 %tobool5 to i8
  store i8 %frombool6, ptr %busy, align 1
  br label %for.inc

for.inc:                                          ; preds = %if.end, %if.then
  %14 = load ptr, ptr %next, align 8
  store ptr %14, ptr %c, align 8
  br label %for.cond, !llvm.loop !7

for.end:                                          ; preds = %land.end
  %15 = load i8, ptr %busy, align 1
  %tobool7 = trunc i8 %15 to i1
  ret i1 %tobool7
}

; Function Attrs: nounwind sspstrong uwtable
define dso_local zeroext i1 @bdrv_drain_poll(ptr noundef %bs, ptr noundef %ignore_parent, i1 noundef zeroext %ignore_bds_parents) #0 {
entry:
  %retval = alloca i1, align 1
  %bs.addr = alloca ptr, align 8
  %ignore_parent.addr = alloca ptr, align 8
  %ignore_bds_parents.addr = alloca i8, align 1
  %tmp = alloca i32, align 4
  %atomic-temp = alloca i32, align 4
  store ptr %bs, ptr %bs.addr, align 8
  store ptr %ignore_parent, ptr %ignore_parent.addr, align 8
  %frombool = zext i1 %ignore_bds_parents to i8
  store i8 %frombool, ptr %ignore_bds_parents.addr, align 1
  br label %do.body

do.body:                                          ; preds = %entry
  %call = call zeroext i1 @qemu_in_main_thread()
  br i1 %call, label %if.then, label %if.else

if.then:                                          ; preds = %do.body
  br label %if.end

if.else:                                          ; preds = %do.body
  call void @__assert_fail(ptr noundef @.str, ptr noundef @.str.1, i32 noundef 264, ptr noundef @__PRETTY_FUNCTION__.bdrv_drain_poll) #10
  unreachable

if.end:                                           ; preds = %if.then
  br label %do.end

do.end:                                           ; preds = %if.end
  %0 = load ptr, ptr %bs.addr, align 8
  %1 = load ptr, ptr %ignore_parent.addr, align 8
  %2 = load i8, ptr %ignore_bds_parents.addr, align 1
  %tobool = trunc i8 %2 to i1
  %call1 = call zeroext i1 @bdrv_parent_drained_poll(ptr noundef %0, ptr noundef %1, i1 noundef zeroext %tobool)
  br i1 %call1, label %if.then2, label %if.end3

if.then2:                                         ; preds = %do.end
  store i1 true, ptr %retval, align 1
  br label %return

if.end3:                                          ; preds = %do.end
  br label %while.cond

while.cond:                                       ; preds = %do.end5, %if.end3
  br i1 false, label %while.body, label %while.end

while.body:                                       ; preds = %while.cond
  br label %do.body4

do.body4:                                         ; preds = %while.body
  call void @g_assertion_message_expr(ptr noundef null, ptr noundef @.str.1, i32 noundef 270, ptr noundef @__func__.bdrv_drain_poll, ptr noundef null) #13
  unreachable

do.end5:                                          ; No predecessors!
  br label %while.cond

while.end:                                        ; preds = %while.cond
  %3 = load ptr, ptr %bs.addr, align 8
  %in_flight = getelementptr inbounds %struct.BlockDriverState, ptr %3, i32 0, i32 43
  %4 = load atomic i32, ptr %in_flight monotonic, align 4
  store i32 %4, ptr %atomic-temp, align 4
  %5 = load i32, ptr %atomic-temp, align 4
  store i32 %5, ptr %tmp, align 4
  %6 = load i32, ptr %tmp, align 4
  %tobool6 = icmp ne i32 %6, 0
  br i1 %tobool6, label %if.then7, label %if.end8

if.then7:                                         ; preds = %while.end
  store i1 true, ptr %retval, align 1
  br label %return

if.end8:                                          ; preds = %while.end
  store i1 false, ptr %retval, align 1
  br label %return

return:                                           ; preds = %if.end8, %if.then7, %if.then2
  %7 = load i1, ptr %retval, align 1
  ret i1 %7
}