; Function Attrs: nounwind sspstrong uwtable
define dso_local zeroext i1 @bdrv_drain_poll(ptr noundef readonly captures(none) %bs, ptr noundef readnone %ignore_parent, i1 noundef zeroext %ignore_bds_parents) local_unnamed_addr #0 {
entry:
  %call = tail call zeroext i1 @qemu_in_main_thread() #15
  br i1 %call, label %do.end, label %if.else

if.else:                                          ; preds = %entry
  tail call void @__assert_fail(ptr noundef nonnull @.str, ptr noundef nonnull @.str.1, i32 noundef 264, ptr noundef nonnull @__PRETTY_FUNCTION__.bdrv_drain_poll) #16
  unreachable

do.end:                                           ; preds = %entry
  tail call void @assert_bdrv_graph_readable() #15
  %parents.i = getelementptr inbounds nuw i8, ptr %bs, i64 16848
  %0 = load ptr, ptr %parents.i, align 8
  %tobool.not6.i = icmp eq ptr %0, null
  br i1 %tobool.not6.i, label %while.end, label %land.rhs.lr.ph.i

land.rhs.lr.ph.i:                                 ; preds = %do.end
  br i1 %ignore_bds_parents, label %land.rhs.us.i, label %land.rhs.i

land.rhs.us.i:                                    ; preds = %land.rhs.lr.ph.i, %for.inc.us.i
  %busy.08.us.i = phi i1 [ %busy.1.us.i, %for.inc.us.i ], [ false, %land.rhs.lr.ph.i ]
  %c.07.us.i = phi ptr [ %1, %for.inc.us.i ], [ %0, %land.rhs.lr.ph.i ]
  %next_parent.us.i = getelementptr inbounds nuw i8, ptr %c.07.us.i, i64 80
  %1 = load ptr, ptr %next_parent.us.i, align 8
  %cmp.us.i = icmp eq ptr %c.07.us.i, %ignore_parent
  br i1 %cmp.us.i, label %for.inc.us.i, label %lor.lhs.false.us.i

lor.lhs.false.us.i:                               ; preds = %land.rhs.us.i
  %klass.us.i = getelementptr inbounds nuw i8, ptr %c.07.us.i, i64 16
  %2 = load ptr, ptr %klass.us.i, align 8
  %parent_is_bds.us.i = getelementptr inbounds nuw i8, ptr %2, i64 1
  %3 = load i8, ptr %parent_is_bds.us.i, align 1
  %tobool2.us.i = trunc i8 %3 to i1
  br i1 %tobool2.us.i, label %for.inc.us.i, label %if.end.us.i

if.end.us.i:                                      ; preds = %lor.lhs.false.us.i
  %drained_poll.i.us.i = getelementptr inbounds nuw i8, ptr %2, i64 80
  %4 = load ptr, ptr %drained_poll.i.us.i, align 8
  %tobool.not.i.us.i = icmp eq ptr %4, null
  br i1 %tobool.not.i.us.i, label %bdrv_parent_drained_poll_single.exit.us.i, label %if.then.i.us.i

if.then.i.us.i:                                   ; preds = %if.end.us.i
  %call.i.us.i = tail call zeroext i1 %4(ptr noundef nonnull %c.07.us.i) #15
  br label %bdrv_parent_drained_poll_single.exit.us.i

bdrv_parent_drained_poll_single.exit.us.i:        ; preds = %if.then.i.us.i, %if.end.us.i
  %retval.0.i.us.i = phi i1 [ %call.i.us.i, %if.then.i.us.i ], [ false, %if.end.us.i ]
  %5 = or i1 %busy.08.us.i, %retval.0.i.us.i
  br label %for.inc.us.i

for.inc.us.i:                                     ; preds = %bdrv_parent_drained_poll_single.exit.us.i, %lor.lhs.false.us.i, %land.rhs.us.i
  %busy.1.us.i = phi i1 [ %busy.08.us.i, %land.rhs.us.i ], [ %busy.08.us.i, %lor.lhs.false.us.i ], [ %5, %bdrv_parent_drained_poll_single.exit.us.i ]
  %tobool.not.us.i = icmp eq ptr %1, null
  br i1 %tobool.not.us.i, label %bdrv_parent_drained_poll.exit, label %land.rhs.us.i, !llvm.loop !7

land.rhs.i:                                       ; preds = %land.rhs.lr.ph.i, %for.inc.i
  %busy.08.i = phi i1 [ %busy.1.i, %for.inc.i ], [ false, %land.rhs.lr.ph.i ]
  %c.07.i = phi ptr [ %6, %for.inc.i ], [ %0, %land.rhs.lr.ph.i ]
  %next_parent.i = getelementptr inbounds nuw i8, ptr %c.07.i, i64 80
  %6 = load ptr, ptr %next_parent.i, align 8
  %cmp.i = icmp eq ptr %c.07.i, %ignore_parent
  br i1 %cmp.i, label %for.inc.i, label %lor.lhs.false.i

lor.lhs.false.i:                                  ; preds = %land.rhs.i
  %klass.i.i = getelementptr inbounds nuw i8, ptr %c.07.i, i64 16
  %7 = load ptr, ptr %klass.i.i, align 8
  %drained_poll.i.i = getelementptr inbounds nuw i8, ptr %7, i64 80
  %8 = load ptr, ptr %drained_poll.i.i, align 8
  %tobool.not.i.i = icmp eq ptr %8, null
  br i1 %tobool.not.i.i, label %bdrv_parent_drained_poll_single.exit.i, label %if.then.i.i

if.then.i.i:                                      ; preds = %lor.lhs.false.i
  %call.i.i = tail call zeroext i1 %8(ptr noundef nonnull %c.07.i) #15
  br label %bdrv_parent_drained_poll_single.exit.i

bdrv_parent_drained_poll_single.exit.i:           ; preds = %if.then.i.i, %lor.lhs.false.i
  %retval.0.i.i = phi i1 [ %call.i.i, %if.then.i.i ], [ false, %lor.lhs.false.i ]
  %9 = or i1 %busy.08.i, %retval.0.i.i
  br label %for.inc.i

for.inc.i:                                        ; preds = %bdrv_parent_drained_poll_single.exit.i, %land.rhs.i
  %busy.1.i = phi i1 [ %busy.08.i, %land.rhs.i ], [ %9, %bdrv_parent_drained_poll_single.exit.i ]
  %tobool.not.i = icmp eq ptr %6, null
  br i1 %tobool.not.i, label %bdrv_parent_drained_poll.exit, label %land.rhs.i, !llvm.loop !7

bdrv_parent_drained_poll.exit:                    ; preds = %for.inc.i, %for.inc.us.i
  %busy.0.lcssa.i = phi i1 [ %busy.1.us.i, %for.inc.us.i ], [ %busy.1.i, %for.inc.i ]
  br i1 %busy.0.lcssa.i, label %return, label %while.end

while.end:                                        ; preds = %do.end, %bdrv_parent_drained_poll.exit
  %in_flight = getelementptr inbounds nuw i8, ptr %bs, i64 16972
  %10 = load atomic i32, ptr %in_flight monotonic, align 4
  %tobool6.not = icmp ne i32 %10, 0
  br label %return

return:                                           ; preds = %while.end, %bdrv_parent_drained_poll.exit
  %retval.0 = phi i1 [ true, %bdrv_parent_drained_poll.exit ], [ %tobool6.not, %while.end ]
  ret i1 %retval.0
}